; Function Attrs: mustprogress uwtable
define dso_local noundef i32 @_ZNK3net19SourceAddressTokens8ByteSizeEv(ptr nocapture noundef nonnull align 8 dereferenceable(56) %this) unnamed_addr #1 align 2 personality ptr @__gxx_personality_v0 {
entry:
  %current_size_.i.i.i = getelementptr inbounds i8, ptr %this, i64 40
  %0 = load i32, ptr %current_size_.i.i.i, align 8
  %cmp8 = icmp sgt i32 %0, 0
  br i1 %cmp8, label %for.body.lr.ph, label %for.end

for.body.lr.ph:                                   ; preds = %entry
  %rep_.i.i.i = getelementptr inbounds i8, ptr %this, i64 48
  br label %for.body

for.body:                                         ; preds = %for.body.lr.ph, %_ZN6google8protobuf8internal14WireFormatLite20MessageSizeNoVirtualIN3net18SourceAddressTokenEEEiRKT_.exit
  %indvars.iv = phi i64 [ 0, %for.body.lr.ph ], [ %indvars.iv.next, %_ZN6google8protobuf8internal14WireFormatLite20MessageSizeNoVirtualIN3net18SourceAddressTokenEEEiRKT_.exit ]
  %total_size.09 = phi i32 [ %0, %for.body.lr.ph ], [ %add5, %_ZN6google8protobuf8internal14WireFormatLite20MessageSizeNoVirtualIN3net18SourceAddressTokenEEEiRKT_.exit ]
  %1 = load ptr, ptr %rep_.i.i.i, align 8
  %elements.i.i.i = getelementptr inbounds i8, ptr %1, i64 8
  %arrayidx.i.i.i = getelementptr inbounds [1 x ptr], ptr %elements.i.i.i, i64 0, i64 %indvars.iv
  %2 = load ptr, ptr %arrayidx.i.i.i, align 8
  %call.i = tail call noundef i32 @_ZNK3net18SourceAddressToken8ByteSizeEv(ptr noundef nonnull align 8 dereferenceable(56) %2)
  %cmp.i.i.i = icmp ult i32 %call.i, 128
  br i1 %cmp.i.i.i, label %_ZN6google8protobuf8internal14WireFormatLite20MessageSizeNoVirtualIN3net18SourceAddressTokenEEEiRKT_.exit, label %if.else.i.i.i

if.else.i.i.i:                                    ; preds = %for.body
  %call.i.i.i = tail call noundef i32 @_ZN6google8protobuf2io17CodedOutputStream20VarintSize32FallbackEj(i32 noundef %call.i)
  br label %_ZN6google8protobuf8internal14WireFormatLite20MessageSizeNoVirtualIN3net18SourceAddressTokenEEEiRKT_.exit

_ZN6google8protobuf8internal14WireFormatLite20MessageSizeNoVirtualIN3net18SourceAddressTokenEEEiRKT_.exit: ; preds = %for.body, %if.else.i.i.i
  %retval.0.i.i.i = phi i32 [ %call.i.i.i, %if.else.i.i.i ], [ 1, %for.body ]
  %add.i.i = add i32 %call.i, %total_size.09
  %add5 = add i32 %add.i.i, %retval.0.i.i.i
  %indvars.iv.next = add nuw nsw i64 %indvars.iv, 1
  %3 = load i32, ptr %current_size_.i.i.i, align 8
  %4 = sext i32 %3 to i64
  %cmp = icmp slt i64 %indvars.iv.next, %4
  br i1 %cmp, label %for.body, label %for.end, !llvm.loop !11

for.end:                                          ; preds = %_ZN6google8protobuf8internal14WireFormatLite20MessageSizeNoVirtualIN3net18SourceAddressTokenEEEiRKT_.exit, %entry
  %total_size.0.lcssa = phi i32 [ %0, %entry ], [ %add5, %_ZN6google8protobuf8internal14WireFormatLite20MessageSizeNoVirtualIN3net18SourceAddressTokenEEEiRKT_.exit ]
  %_unknown_fields_.i = getelementptr inbounds i8, ptr %this, i64 8
  %5 = load ptr, ptr %_unknown_fields_.i, align 8
  %call7 = tail call noundef i64 @_ZNKSt7__cxx1112basic_stringIcSt11char_traitsIcESaIcEE4sizeEv(ptr noundef nonnull align 8 dereferenceable(32) %5) #14
  %6 = trunc i64 %call7 to i32
  %conv9 = add i32 %total_size.0.lcssa, %6
  %_cached_size_ = getelementptr inbounds i8, ptr %this, i64 28
  store i32 %conv9, ptr %_cached_size_, align 4
  ret i32 %conv9
}